	.build_version macos, 15, 0	sdk_version 15, 5
	.file	0 "/Users/psjj/Downloads/mit/hw3/homework3" "loop.c" md5 0xfe27a5da90ed2d2b69e01a98f1b09add
	.file	1 "/Library/Developer/CommandLineTools/SDKs/MacOSX15.sdk/usr/include/_types" "_uint32_t.h" md5 0x0254eb80c6b9719ac45c3c1cf872109b
	.file	2 "/Library/Developer/CommandLineTools/SDKs/MacOSX15.sdk/usr/include/mach" "mach_time.h" md5 0x6c11fc105a1a7cfec850bb1beaa4cf47
	.file	3 "./." "fasttime.h" md5 0x27bd3d6b4b5f1ce284266b0c813327bc
	.section	__TEXT,__text,regular,pure_instructions
	.globl	_main                           ; -- Begin function main
	.p2align	2
_main:                                  ; @main
Lfunc_begin0:
	.loc	0 49 0                          ; loop.c:49:0
	.cfi_startproc
; %bb.0:
	;DEBUG_VALUE: main:argc <- $w0
	;DEBUG_VALUE: main:argv <- $x1
	stp	x24, x23, [sp, #-64]!           ; 16-byte Folded Spill
	stp	x22, x21, [sp, #16]             ; 16-byte Folded Spill
	stp	x20, x19, [sp, #32]             ; 16-byte Folded Spill
	stp	x29, x30, [sp, #48]             ; 16-byte Folded Spill
	add	x29, sp, #48
	sub	sp, sp, #3, lsl #12             ; =12288
	sub	sp, sp, #64
	.cfi_def_cfa w29, 16
	.cfi_offset w30, -8
	.cfi_offset w29, -16
	.cfi_offset w19, -24
	.cfi_offset w20, -32
	.cfi_offset w21, -40
	.cfi_offset w22, -48
	.cfi_offset w23, -56
	.cfi_offset w24, -64
Lloh0:
	adrp	x8, ___stack_chk_guard@GOTPAGE
Lloh1:
	ldr	x8, [x8, ___stack_chk_guard@GOTPAGEOFF]
Lloh2:
	ldr	x8, [x8]
	stur	x8, [x29, #-56]
	mov	w23, #34464                     ; =0x86a0
	movk	w23, #1, lsl #16
Ltmp0:
	;DEBUG_VALUE: main:total <- 0
	;DEBUG_VALUE: main:seed <- 0
	.loc	0 56 18 prologue_end            ; loop.c:56:18
	str	wzr, [sp, #52]
Ltmp1:
	;DEBUG_VALUE: main:j <- 0
	.loc	0 0 18 is_stmt 0                ; loop.c:0:18
	add	x20, sp, #2, lsl #12            ; =8192
	add	x20, x20, #56
Ltmp2:
	.loc	0 62 14 is_stmt 1               ; loop.c:62:14
	add	x0, sp, #2, lsl #12             ; =8192
Ltmp3:
	;DEBUG_VALUE: main:argc <- [DW_OP_LLVM_entry_value 1] $w0
	add	x0, x0, #56
	mov	w1, #4096                       ; =0x1000
Ltmp4:
	;DEBUG_VALUE: main:argv <- [DW_OP_LLVM_entry_value 1] $x1
	bl	_bzero
Ltmp5:
	.loc	0 0 14 is_stmt 0                ; loop.c:0:14
	add	x21, sp, #1, lsl #12            ; =4096
	add	x21, x21, #56
	.loc	0 63 14 is_stmt 1               ; loop.c:63:14
	add	x0, sp, #1, lsl #12             ; =4096
	add	x0, x0, #56
	mov	w1, #4096                       ; =0x1000
	bl	_bzero
Ltmp6:
	.loc	0 0 14 is_stmt 0                ; loop.c:0:14
	add	x22, sp, #56
	.loc	0 64 14 is_stmt 1               ; loop.c:64:14
	add	x0, sp, #56
	mov	w1, #4096                       ; =0x1000
	bl	_bzero
Ltmp7:
	;DEBUG_VALUE: main:j <- undef
	.loc	3 38 10                         ; ././fasttime.h:38:10
	bl	_mach_absolute_time
Ltmp8:
	mov	x19, x0
Ltmp9:
	;DEBUG_VALUE: main:time1 <- $x19
	;DEBUG_VALUE: main:i <- 0
	.loc	3 0 10 is_stmt 0                ; ././fasttime.h:0:10
	mov	w8, #0                          ; =0x0
Ltmp10:
LBB0_1:                                 ; =>This Loop Header: Depth=1
                                        ;     Child Loop BB0_2 Depth 2
	;DEBUG_VALUE: main:time1 <- $x19
	;DEBUG_VALUE: main:argv <- [DW_OP_LLVM_entry_value 1] $x1
	;DEBUG_VALUE: main:argc <- [DW_OP_LLVM_entry_value 1] $w0
	;DEBUG_VALUE: main:seed <- 0
	;DEBUG_VALUE: main:total <- 0
	;DEBUG_VALUE: main:j <- 0
	;DEBUG_VALUE: main:i <- $w8
	mov	x9, #0                          ; =0x0
Ltmp11:
LBB0_2:                                 ;   Parent Loop BB0_1 Depth=1
                                        ; =>  This Inner Loop Header: Depth=2
	;DEBUG_VALUE: main:i <- $w8
	;DEBUG_VALUE: main:time1 <- $x19
	;DEBUG_VALUE: main:argv <- [DW_OP_LLVM_entry_value 1] $x1
	;DEBUG_VALUE: main:argc <- [DW_OP_LLVM_entry_value 1] $w0
	;DEBUG_VALUE: main:j <- 0
	;DEBUG_VALUE: main:seed <- 0
	;DEBUG_VALUE: main:total <- 0
	.loc	0 71 20 is_stmt 1               ; loop.c:71:20
	add	x10, x20, x9
	ldp	q0, q1, [x10]
	ldp	q2, q3, [x10, #32]
	.loc	0 71 32 is_stmt 0               ; loop.c:71:32
	add	x10, x21, x9
	ldp	q4, q5, [x10]
	ldp	q6, q7, [x10, #32]
	.loc	0 71 25                         ; loop.c:71:25
	add.4s	v0, v4, v0
	add.4s	v1, v5, v1
	add.4s	v2, v6, v2
	add.4s	v3, v7, v3
	.loc	0 71 18                         ; loop.c:71:18
	add	x10, x22, x9
	stp	q0, q1, [x10]
	stp	q2, q3, [x10, #32]
Ltmp12:
	.loc	0 70 29 is_stmt 1               ; loop.c:70:29
	add	x9, x9, #64
	cmp	x9, #1, lsl #12                 ; =4096
	b.ne	LBB0_2
Ltmp13:
; %bb.3:                                ;   in Loop: Header=BB0_1 Depth=1
	;DEBUG_VALUE: main:i <- $w8
	;DEBUG_VALUE: main:time1 <- $x19
	;DEBUG_VALUE: main:argv <- [DW_OP_LLVM_entry_value 1] $x1
	;DEBUG_VALUE: main:argc <- [DW_OP_LLVM_entry_value 1] $w0
	;DEBUG_VALUE: main:j <- 0
	;DEBUG_VALUE: main:seed <- 0
	;DEBUG_VALUE: main:total <- 0
	.loc	0 69 25                         ; loop.c:69:25
	add	w8, w8, #1
Ltmp14:
	;DEBUG_VALUE: main:i <- $w8
	.loc	0 69 5 is_stmt 0                ; loop.c:69:5
	cmp	w8, w23
	b.ne	LBB0_1
Ltmp15:
; %bb.4:
	;DEBUG_VALUE: main:i <- $w8
	;DEBUG_VALUE: main:time1 <- $x19
	;DEBUG_VALUE: main:argv <- [DW_OP_LLVM_entry_value 1] $x1
	;DEBUG_VALUE: main:argc <- [DW_OP_LLVM_entry_value 1] $w0
	;DEBUG_VALUE: main:j <- 0
	;DEBUG_VALUE: main:seed <- 0
	;DEBUG_VALUE: main:total <- 0
	.loc	3 38 10 is_stmt 1               ; ././fasttime.h:38:10
	bl	_mach_absolute_time
Ltmp16:
	mov	x21, x0
Ltmp17:
	;DEBUG_VALUE: main:seed <- [DW_OP_plus_uconst 52, DW_OP_deref] $sp
	;DEBUG_VALUE: main:time2 <- $x21
	.loc	0 78 16                         ; loop.c:78:16
	add	x0, sp, #52
	bl	_rand_r
Ltmp18:
	.loc	0 78 30 is_stmt 0               ; loop.c:78:30
	negs	w8, w0
	and	w8, w8, #0x3ff
	and	w9, w0, #0x3ff
	csneg	w8, w9, w8, mi
	add	x9, sp, #56
	.loc	0 78 14                         ; loop.c:78:14
	ldr	w20, [x9, w8, sxtw #2]
Ltmp19:
	;DEBUG_VALUE: main:total <- $w20
	;DEBUG_VALUE: tdiff:end <- $x21
	;DEBUG_VALUE: tdiff:start <- $x19
	.loc	3 47 11 is_stmt 1               ; ././fasttime.h:47:11
Lloh3:
	adrp	x22, _tdiff.timebase@PAGE
Lloh4:
	add	x22, x22, _tdiff.timebase@PAGEOFF
	mov	x0, x22
	bl	_mach_timebase_info
Ltmp20:
	;DEBUG_VALUE: tdiff:r <- undef
	.loc	3 49 27                         ; ././fasttime.h:49:27
	sub	x8, x21, x19
Ltmp21:
	;DEBUG_VALUE: tdiff:elapsed <- $x8
	.loc	3 50 15                         ; ././fasttime.h:50:15
	ucvtf	d0, x8
	.loc	3 50 33 is_stmt 0               ; ././fasttime.h:50:33
	ldp	s1, s2, [x22]
	ucvtf	d1, d1
	.loc	3 50 50                         ; ././fasttime.h:50:50
	ucvtf	d2, d2
	mov	x8, #54933                      ; =0xd695
Ltmp22:
	.loc	3 0 50                          ; ././fasttime.h:0:50
	movk	x8, #59430, lsl #16
	movk	x8, #11787, lsl #32
	movk	x8, #15889, lsl #48
	fmov	d3, x8
Ltmp23:
	;DEBUG_VALUE: tdiff:ns <- undef
	.loc	3 50 31                         ; ././fasttime.h:50:31
	fmul	d1, d3, d1
	.loc	3 51 12 is_stmt 1               ; ././fasttime.h:51:12
	fmul	d0, d0, d1
	fdiv	d0, d0, d2
Ltmp24:
	;DEBUG_VALUE: main:elapsedf <- $d0
	.loc	0 83 5                          ; loop.c:83:5
Lloh5:
	adrp	x8, l_.str.2@PAGE
Lloh6:
	add	x8, x8, l_.str.2@PAGEOFF
Lloh7:
	adrp	x9, l_.str.1@PAGE
Lloh8:
	add	x9, x9, l_.str.1@PAGEOFF
	stp	x9, x8, [sp, #24]
	mov	w8, #1024                       ; =0x400
	stp	x8, x23, [sp, #8]
	str	d0, [sp]
Lloh9:
	adrp	x0, l_.str@PAGE
Lloh10:
	add	x0, x0, l_.str@PAGEOFF
	bl	_printf
Ltmp25:
	.loc	0 0 5 is_stmt 0                 ; loop.c:0:5
	ldur	x8, [x29, #-56]
Lloh11:
	adrp	x9, ___stack_chk_guard@GOTPAGE
Lloh12:
	ldr	x9, [x9, ___stack_chk_guard@GOTPAGEOFF]
Lloh13:
	ldr	x9, [x9]
	cmp	x9, x8
	b.ne	LBB0_6
Ltmp26:
; %bb.5:
	;DEBUG_VALUE: main:total <- $w20
	;DEBUG_VALUE: main:time2 <- $x21
	;DEBUG_VALUE: main:seed <- [DW_OP_plus_uconst 52, DW_OP_deref] $sp
	;DEBUG_VALUE: main:time1 <- $x19
	;DEBUG_VALUE: main:argv <- [DW_OP_LLVM_entry_value 1] $x1
	;DEBUG_VALUE: main:argc <- [DW_OP_LLVM_entry_value 1] $w0
	;DEBUG_VALUE: main:j <- 0
	.loc	0 87 5 is_stmt 1                ; loop.c:87:5
	mov	x0, x20
	.loc	0 87 5 epilogue_begin is_stmt 0 ; loop.c:87:5
	add	sp, sp, #3, lsl #12             ; =12288
Ltmp27:
	add	sp, sp, #64
	ldp	x29, x30, [sp, #48]             ; 16-byte Folded Reload
	ldp	x20, x19, [sp, #32]             ; 16-byte Folded Reload
Ltmp28:
	ldp	x22, x21, [sp, #16]             ; 16-byte Folded Reload
Ltmp29:
	ldp	x24, x23, [sp], #64             ; 16-byte Folded Reload
	ret
Ltmp30:
LBB0_6:
	;DEBUG_VALUE: tdiff:start <- $x19
	;DEBUG_VALUE: tdiff:end <- $x21
	;DEBUG_VALUE: main:total <- $w20
	;DEBUG_VALUE: main:time2 <- $x21
	;DEBUG_VALUE: main:seed <- [DW_OP_plus_uconst 52, DW_OP_deref] $sp
	;DEBUG_VALUE: main:time1 <- $x19
	;DEBUG_VALUE: main:argv <- [DW_OP_LLVM_entry_value 1] $x1
	;DEBUG_VALUE: main:argc <- [DW_OP_LLVM_entry_value 1] $w0
	;DEBUG_VALUE: main:j <- 0
	.loc	0 0 5                           ; loop.c:0:5
	bl	___stack_chk_fail
Ltmp31:
	.loh AdrpLdrGotLdr	Lloh0, Lloh1, Lloh2
	.loh AdrpLdrGotLdr	Lloh11, Lloh12, Lloh13
	.loh AdrpAdd	Lloh9, Lloh10
	.loh AdrpAdd	Lloh7, Lloh8
	.loh AdrpAdd	Lloh5, Lloh6
	.loh AdrpAdd	Lloh3, Lloh4
Lfunc_end0:
	.cfi_endproc
	.file	4 "/Library/Developer/CommandLineTools/SDKs/MacOSX15.sdk/usr/include/_types" "_uint64_t.h" md5 0x77fc5e91653260959605f129691cf9b1
	.file	5 "/Library/Developer/CommandLineTools/SDKs/MacOSX15.sdk/usr/include" "_stdlib.h" md5 0x17a3e5580239ce2f2af260c9c943ad9b
	.file	6 "/Library/Developer/CommandLineTools/SDKs/MacOSX15.sdk/usr/include/mach/arm" "kern_return.h" md5 0x9368259efd8fc79657877057a021c1ce
	.file	7 "/Library/Developer/CommandLineTools/SDKs/MacOSX15.sdk/usr/include" "_printf.h" md5 0x2d37517bd0342aa326aa1d3660ad4ab4
                                        ; -- End function
	.section	__TEXT,__cstring,cstring_literals
l_.str:                                 ; @.str
	.asciz	"Elapsed execution time: %f sec; N: %d, I: %d, __OP__: %s, __TYPE__: %s\n"

l_.str.1:                               ; @.str.1
	.asciz	"+"

l_.str.2:                               ; @.str.2
	.asciz	"uint32_t"

.zerofill __DATA,__bss,_tdiff.timebase,8,2 ; @tdiff.timebase