	.build_version macos, 15, 0	sdk_version 15, 5
	.file	0 "/Users/psjj/Downloads/mit/hw3/recitation3" "example4.c" md5 0xdee7868a491240082d8d416269f09af0
	.section	__TEXT,__text,regular,pure_instructions
	.globl	_test                           ; -- Begin function test
	.p2align	2
_test:                                  ; @test
Lfunc_begin0:
	.cfi_startproc
; %bb.0:
	;DEBUG_VALUE: test:a <- $x0
	;DEBUG_VALUE: test:x <- $x0
	;DEBUG_VALUE: test:y <- 0.000000e+00
	;DEBUG_VALUE: test:i <- 0
	.loc	0 17 3 prologue_end             ; example4.c:17:3
	add	x8, x0, #32
	movi	d0, #0000000000000000
	mov	w9, #65536                      ; =0x10000
Ltmp0:
LBB0_1:                                 ; =>This Inner Loop Header: Depth=1
	;DEBUG_VALUE: test:i <- 0
	;DEBUG_VALUE: test:y <- 0.000000e+00
	;DEBUG_VALUE: test:x <- $x0
	;DEBUG_VALUE: test:a <- $x0
	.loc	0 18 10                         ; example4.c:18:10
	ldp	q1, q2, [x8, #-32]
	mov	d3, v1[1]
	mov	d4, v2[1]
	ldp	q5, q6, [x8], #64
	mov	d7, v5[1]
	mov	d16, v6[1]
	.loc	0 18 7 is_stmt 0                ; example4.c:18:7
	fadd	d0, d0, d1
	fadd	d0, d0, d3
	fadd	d0, d0, d2
	fadd	d0, d0, d4
	fadd	d0, d0, d5
	fadd	d0, d0, d7
	fadd	d0, d0, d6
	fadd	d0, d0, d16
Ltmp1:
	.loc	0 17 26 is_stmt 1               ; example4.c:17:26
	subs	x9, x9, #8
	b.ne	LBB0_1
Ltmp2:
; %bb.2:
	;DEBUG_VALUE: test:i <- 0
	;DEBUG_VALUE: test:y <- 0.000000e+00
	;DEBUG_VALUE: test:x <- $x0
	;DEBUG_VALUE: test:a <- $x0
	.loc	0 20 3                          ; example4.c:20:3
	ret
Ltmp3:
Lfunc_end0:
	.cfi_endproc
                                        ; -- End function
	.section	__TEXT,__literal16,16byte_literals
	.p2align	4, 0x0                          ; -- Begin function main
lCPI1_0:
	.quad	0                               ; 0x0
	.quad	1                               ; 0x1
	.section	__TEXT,__text,regular,pure_instructions
	.globl	_main
	.p2align	2
_main:                                  ; @main
Lfunc_begin1:
	.loc	0 23 0                          ; example4.c:23:0
	.cfi_startproc
; %bb.0:
	stp	d9, d8, [sp, #-48]!             ; 16-byte Folded Spill
	stp	x28, x27, [sp, #16]             ; 16-byte Folded Spill
	stp	x29, x30, [sp, #32]             ; 16-byte Folded Spill
	add	x29, sp, #32
	sub	sp, sp, #128, lsl #12           ; =524288
	sub	sp, sp, #16
	.cfi_def_cfa w29, 16
	.cfi_offset w30, -8
	.cfi_offset w29, -16
	.cfi_offset w27, -24
	.cfi_offset w28, -32
	.cfi_offset b8, -40
	.cfi_offset b9, -48
	mov	x8, #0                          ; =0x0
Lloh0:
	adrp	x9, ___stack_chk_guard@GOTPAGE
Lloh1:
	ldr	x9, [x9, ___stack_chk_guard@GOTPAGEOFF]
Lloh2:
	ldr	x9, [x9]
	stur	x9, [x29, #-40]
Lloh3:
	adrp	x9, lCPI1_0@PAGE
Lloh4:
	ldr	q0, [x9, lCPI1_0@PAGEOFF]
	;DEBUG_VALUE: i <- 0
	movi.2s	v1, #1
	movi.2s	v2, #3
	movi.2s	v3, #5
	movi.2s	v4, #7
	fmov.2d	v5, #1.00000000
	add	x9, sp, #8
	mov	w10, #8                         ; =0x8
	dup.2d	v6, x10
LBB1_1:                                 ; =>This Inner Loop Header: Depth=1
Ltmp4:
	;DEBUG_VALUE: i <- 0
	.loc	0 26 22 prologue_end            ; example4.c:26:22
	xtn.2s	v7, v0
	add.2s	v16, v7, v1
	add.2s	v17, v7, v2
	add.2s	v18, v7, v3
	add.2s	v7, v7, v4
	ushll.2d	v16, v16, #0
	ucvtf.2d	v16, v16
	ushll.2d	v17, v17, #0
	ucvtf.2d	v17, v17
	ushll.2d	v18, v18, #0
	ucvtf.2d	v18, v18
	ushll.2d	v7, v7, #0
	ucvtf.2d	v7, v7
	.loc	0 26 15 is_stmt 0               ; example4.c:26:15
	fdiv.2d	v16, v5, v16
	fdiv.2d	v17, v5, v17
	fdiv.2d	v18, v5, v18
	fdiv.2d	v7, v5, v7
	.loc	0 26 10                         ; example4.c:26:10
	add	x10, x9, x8
	stp	q16, q17, [x10]
	stp	q18, q7, [x10, #32]
	add.2d	v0, v0, v6
	.loc	0 26 22                         ; example4.c:26:22
	add	x8, x8, #64
	cmp	x8, #128, lsl #12               ; =524288
	b.ne	LBB1_1
Ltmp5:
; %bb.2:
	;DEBUG_VALUE: i <- 0
	.loc	0 0 22                          ; example4.c:0:22
	mov	x8, #0                          ; =0x0
	movi	d8, #0000000000000000
	;DEBUG_VALUE: test:a <- [DW_OP_plus_uconst 8, DW_OP_stack_value] $sp
	;DEBUG_VALUE: test:x <- [DW_OP_plus_uconst 8, DW_OP_stack_value] $sp
	;DEBUG_VALUE: test:y <- 0.000000e+00
	;DEBUG_VALUE: test:i <- 0
	add	x9, sp, #8
LBB1_3:                                 ; =>This Inner Loop Header: Depth=1
Ltmp6:
	;DEBUG_VALUE: test:i <- 0
	;DEBUG_VALUE: test:y <- 0.000000e+00
	;DEBUG_VALUE: test:x <- [DW_OP_plus_uconst 8, DW_OP_stack_value] $sp
	;DEBUG_VALUE: test:a <- [DW_OP_plus_uconst 8, DW_OP_stack_value] $sp
	.loc	0 18 10 is_stmt 1               ; example4.c:18:10
	add	x10, x9, x8
	ldp	q0, q1, [x10]
	mov	d2, v0[1]
	mov	d3, v1[1]
	ldp	q4, q5, [x10, #32]
	mov	d6, v4[1]
	mov	d7, v5[1]
	.loc	0 18 7 is_stmt 0                ; example4.c:18:7
	fadd	d0, d8, d0
	fadd	d0, d0, d2
	fadd	d0, d0, d1
	fadd	d0, d0, d3
	fadd	d0, d0, d4
	fadd	d0, d0, d6
	fadd	d0, d0, d5
	fadd	d8, d0, d7
Ltmp7:
	.loc	0 17 26 is_stmt 1               ; example4.c:17:26
	add	x8, x8, #64
	cmp	x8, #128, lsl #12               ; =524288
	b.ne	LBB1_3
Ltmp8:
; %bb.4:
	;DEBUG_VALUE: main:sum <- $d8
	.loc	0 29 3                          ; example4.c:29:3
	str	d8, [sp]
Lloh5:
	adrp	x0, l_.str@PAGE
Lloh6:
	add	x0, x0, l_.str@PAGEOFF
	bl	_printf
Ltmp9:
	.loc	0 30 3                          ; example4.c:30:3
	str	d8, [sp]
Lloh7:
	adrp	x0, l_.str.1@PAGE
Lloh8:
	add	x0, x0, l_.str.1@PAGEOFF
	bl	_printf
Ltmp10:
	.loc	0 0 3 is_stmt 0                 ; example4.c:0:3
	ldur	x8, [x29, #-40]
Lloh9:
	adrp	x9, ___stack_chk_guard@GOTPAGE
Lloh10:
	ldr	x9, [x9, ___stack_chk_guard@GOTPAGEOFF]
Lloh11:
	ldr	x9, [x9]
	cmp	x9, x8
	b.ne	LBB1_6
Ltmp11:
; %bb.5:
	;DEBUG_VALUE: main:sum <- $d8
	.loc	0 31 1 is_stmt 1                ; example4.c:31:1
	mov	w0, #0                          ; =0x0
	.loc	0 31 1 epilogue_begin is_stmt 0 ; example4.c:31:1
	add	sp, sp, #128, lsl #12           ; =524288
	add	sp, sp, #16
	ldp	x29, x30, [sp, #32]             ; 16-byte Folded Reload
	ldp	x28, x27, [sp, #16]             ; 16-byte Folded Reload
	ldp	d9, d8, [sp], #48               ; 16-byte Folded Reload
Ltmp12:
	ret
Ltmp13:
LBB1_6:
	;DEBUG_VALUE: main:sum <- $d8
	.loc	0 0 1                           ; example4.c:0:1
	bl	___stack_chk_fail
Ltmp14:
	.loh AdrpLdr	Lloh3, Lloh4
	.loh AdrpLdrGotLdr	Lloh0, Lloh1, Lloh2
	.loh AdrpLdrGotLdr	Lloh9, Lloh10, Lloh11
	.loh AdrpAdd	Lloh7, Lloh8
	.loh AdrpAdd	Lloh5, Lloh6
Lfunc_end1:
	.cfi_endproc
	.file	1 "/Library/Developer/CommandLineTools/SDKs/MacOSX15.sdk/usr/include/arm" "_types.h" md5 0xb270144f57ae258d0ce80b8f87be068c
	.file	2 "/Library/Developer/CommandLineTools/SDKs/MacOSX15.sdk/usr/include/sys/_types" "_size_t.h" md5 0xf7981334d28e0c246f35cd24042aa2a4
	.file	3 "/Library/Developer/CommandLineTools/SDKs/MacOSX15.sdk/usr/include" "_printf.h" md5 0x2d37517bd0342aa326aa1d3660ad4ab4
                                        ; -- End function
	.section	__TEXT,__cstring,cstring_literals
l_.str:                                 ; @.str
	.asciz	"The decimal floating point sum result is: %f\n"

l_.str.1:                               ; @.str.1
	.asciz	"The raw floating point sum result is: %a\n"
